; Function Attrs: nounwind uwtable
define void @Aig_ManPartSplitOne_rec(ptr noundef %0, ptr noundef %1, ptr noundef captures(none) %2, ptr noundef %3) local_unnamed_addr #2 {
  %5 = getelementptr i8, ptr %1, i64 312
  %.val28 = load i32, ptr %5, align 8, !tbaa !40
  %6 = getelementptr i8, ptr %2, i64 32
  %.val29 = load i32, ptr %6, align 8, !tbaa !41
  %.not = icmp eq i32 %.val29, %.val28
  br i1 %.not, label %51, label %7

7:                                                ; preds = %4
  store i32 %.val28, ptr %6, align 8, !tbaa !41
  %8 = tail call ptr @Aig_ObjCreateCi(ptr noundef %0) #18
  %9 = getelementptr inbounds nuw i8, ptr %2, i64 40
  store ptr %8, ptr %9, align 8, !tbaa !42
  %10 = getelementptr inbounds nuw i8, ptr %2, i64 24
  %11 = load i64, ptr %10, align 8
  %12 = and i64 %11, 16
  %.not25 = icmp eq i64 %12, 0
  br i1 %.not25, label %13, label %.sink.split

13:                                               ; preds = %7
  %14 = and i64 %11, 32
  %.not26 = icmp eq i64 %14, 0
  br i1 %.not26, label %18, label %.sink.split

.sink.split:                                      ; preds = %13, %7
  %.sink38 = phi i64 [ 16, %7 ], [ 32, %13 ]
  %15 = getelementptr inbounds nuw i8, ptr %8, i64 24
  %16 = load i64, ptr %15, align 8
  %17 = or i64 %16, %.sink38
  store i64 %17, ptr %15, align 8
  br label %18

18:                                               ; preds = %.sink.split, %13
  %19 = getelementptr i8, ptr %2, i64 36
  %.val = load i32, ptr %19, align 4, !tbaa !34
  %20 = getelementptr inbounds nuw i8, ptr %3, i64 4
  %21 = load i32, ptr %20, align 4, !tbaa !26
  %22 = load i32, ptr %3, align 8, !tbaa !23
  %23 = icmp eq i32 %21, %22
  br i1 %23, label %24, label %.Vec_IntGrow.exit10_crit_edge.i

.Vec_IntGrow.exit10_crit_edge.i:                  ; preds = %18
  %.phi.trans.insert.i = getelementptr inbounds nuw i8, ptr %3, i64 8
  %.pre.i = load ptr, ptr %.phi.trans.insert.i, align 8, !tbaa !25
  br label %Vec_IntPush.exit

24:                                               ; preds = %18
  %25 = icmp slt i32 %21, 16
  br i1 %25, label %26, label %34

26:                                               ; preds = %24
  %27 = getelementptr inbounds nuw i8, ptr %3, i64 8
  %28 = load ptr, ptr %27, align 8, !tbaa !25
  %.not9.i.i = icmp eq ptr %28, null
  br i1 %.not9.i.i, label %31, label %29

29:                                               ; preds = %26
  %30 = tail call dereferenceable_or_null(64) ptr @realloc(ptr noundef nonnull %28, i64 noundef 64) #19
  br label %Vec_IntGrow.exit.i

31:                                               ; preds = %26
  %32 = tail call noalias dereferenceable_or_null(64) ptr @malloc(i64 noundef 64) #17
  br label %Vec_IntGrow.exit.i

Vec_IntGrow.exit.i:                               ; preds = %31, %29
  %33 = phi ptr [ %30, %29 ], [ %32, %31 ]
  store ptr %33, ptr %27, align 8, !tbaa !25
  store i32 16, ptr %3, align 8, !tbaa !23
  br label %Vec_IntPush.exit

34:                                               ; preds = %24
  %35 = shl nuw nsw i32 %21, 1
  %36 = getelementptr inbounds nuw i8, ptr %3, i64 8
  %37 = load ptr, ptr %36, align 8, !tbaa !25
  %.not9.i9.i = icmp eq ptr %37, null
  %38 = zext nneg i32 %35 to i64
  %39 = shl nuw nsw i64 %38, 2
  br i1 %.not9.i9.i, label %42, label %40

40:                                               ; preds = %34
  %41 = tail call ptr @realloc(ptr noundef nonnull %37, i64 noundef %39) #19
  br label %44

42:                                               ; preds = %34
  %43 = tail call noalias ptr @malloc(i64 noundef %39) #17
  br label %44

44:                                               ; preds = %42, %40
  %45 = phi ptr [ %41, %40 ], [ %43, %42 ]
  store ptr %45, ptr %36, align 8, !tbaa !25
  store i32 %35, ptr %3, align 8, !tbaa !23
  br label %Vec_IntPush.exit

Vec_IntPush.exit:                                 ; preds = %.Vec_IntGrow.exit10_crit_edge.i, %Vec_IntGrow.exit.i, %44
  %46 = phi ptr [ %.pre.i, %.Vec_IntGrow.exit10_crit_edge.i ], [ %45, %44 ], [ %33, %Vec_IntGrow.exit.i ]
  %47 = load i32, ptr %20, align 4, !tbaa !26
  %48 = add nsw i32 %47, 1
  store i32 %48, ptr %20, align 4, !tbaa !26
  %49 = sext i32 %47 to i64
  %50 = getelementptr inbounds i32, ptr %46, i64 %49
  store i32 %.val, ptr %50, align 4, !tbaa !35
  br label %86

51:                                               ; preds = %4
  %52 = getelementptr inbounds nuw i8, ptr %2, i64 40
  %53 = load ptr, ptr %52, align 8, !tbaa !42
  %.not27 = icmp eq ptr %53, null
  br i1 %.not27, label %54, label %86

54:                                               ; preds = %51
  %55 = getelementptr i8, ptr %2, i64 8
  %.val31 = load ptr, ptr %55, align 8, !tbaa !43
  %56 = ptrtoint ptr %.val31 to i64
  %57 = and i64 %56, -2
  %58 = inttoptr i64 %57 to ptr
  tail call void @Aig_ManPartSplitOne_rec(ptr noundef %0, ptr noundef nonnull %1, ptr noundef %58, ptr noundef %3)
  %59 = getelementptr i8, ptr %2, i64 16
  %.val32 = load ptr, ptr %59, align 8, !tbaa !44
  %60 = ptrtoint ptr %.val32 to i64
  %61 = and i64 %60, -2
  %62 = inttoptr i64 %61 to ptr
  tail call void @Aig_ManPartSplitOne_rec(ptr noundef %0, ptr noundef nonnull %1, ptr noundef %62, ptr noundef %3)
  %.val33 = load ptr, ptr %55, align 8, !tbaa !43
  %63 = ptrtoint ptr %.val33 to i64
  %64 = and i64 %63, -2
  %.not.i = icmp eq i64 %64, 0
  br i1 %.not.i, label %Aig_ObjChild0Copy.exit, label %65

65:                                               ; preds = %54
  %66 = inttoptr i64 %64 to ptr
  %67 = getelementptr inbounds nuw i8, ptr %66, i64 40
  %68 = load ptr, ptr %67, align 8, !tbaa !42
  %69 = and i64 %63, 1
  %70 = ptrtoint ptr %68 to i64
  %71 = xor i64 %69, %70
  %72 = inttoptr i64 %71 to ptr
  br label %Aig_ObjChild0Copy.exit

Aig_ObjChild0Copy.exit:                           ; preds = %54, %65
  %73 = phi ptr [ %72, %65 ], [ null, %54 ]
  %.val34 = load ptr, ptr %59, align 8, !tbaa !44
  %74 = ptrtoint ptr %.val34 to i64
  %75 = and i64 %74, -2
  %.not.i35 = icmp eq i64 %75, 0
  br i1 %.not.i35, label %Aig_ObjChild1Copy.exit, label %76

76:                                               ; preds = %Aig_ObjChild0Copy.exit
  %77 = inttoptr i64 %75 to ptr
  %78 = getelementptr inbounds nuw i8, ptr %77, i64 40
  %79 = load ptr, ptr %78, align 8, !tbaa !42
  %80 = and i64 %74, 1
  %81 = ptrtoint ptr %79 to i64
  %82 = xor i64 %80, %81
  %83 = inttoptr i64 %82 to ptr
  br label %Aig_ObjChild1Copy.exit

Aig_ObjChild1Copy.exit:                           ; preds = %Aig_ObjChild0Copy.exit, %76
  %84 = phi ptr [ %83, %76 ], [ null, %Aig_ObjChild0Copy.exit ]
  %85 = tail call ptr @Aig_And(ptr noundef %0, ptr noundef %73, ptr noundef %84) #18
  store ptr %85, ptr %52, align 8, !tbaa !42
  br label %86

86:                                               ; preds = %51, %Aig_ObjChild1Copy.exit, %Vec_IntPush.exit
  ret void
}